; Function Attrs: nounwind uwtable
define range(i32 -5, 1) i32 @IDABBDPrecGetWorkSpace(ptr noundef %0, ptr noundef writeonly captures(none) %1, ptr noundef writeonly captures(none) %2) local_unnamed_addr #0 {
  %4 = icmp eq ptr %0, null
  br i1 %4, label %5, label %6

5:                                                ; preds = %3
  tail call void (ptr, i32, ptr, ptr, ptr, ...) @IDAProcessError(ptr noundef null, i32 noundef -1, ptr noundef nonnull @.str, ptr noundef nonnull @.str.8, ptr noundef nonnull @.str.2) #7
  br label %21

6:                                                ; preds = %3
  %7 = getelementptr inbounds nuw i8, ptr %0, i64 1632
  %8 = load ptr, ptr %7, align 8, !tbaa !3
  %9 = icmp eq ptr %8, null
  br i1 %9, label %10, label %11

10:                                               ; preds = %6
  tail call void (ptr, i32, ptr, ptr, ptr, ...) @IDAProcessError(ptr noundef nonnull %0, i32 noundef -2, ptr noundef nonnull @.str, ptr noundef nonnull @.str.8, ptr noundef nonnull @.str.3) #7
  br label %21

11:                                               ; preds = %6
  %12 = getelementptr inbounds nuw i8, ptr %8, i64 232
  %13 = load ptr, ptr %12, align 8, !tbaa !42
  %14 = icmp eq ptr %13, null
  br i1 %14, label %15, label %16

15:                                               ; preds = %11
  tail call void (ptr, i32, ptr, ptr, ptr, ...) @IDAProcessError(ptr noundef nonnull %0, i32 noundef -5, ptr noundef nonnull @.str, ptr noundef nonnull @.str.8, ptr noundef nonnull @.str.7) #7
  br label %21

16:                                               ; preds = %11
  %17 = getelementptr inbounds nuw i8, ptr %13, i64 88
  %18 = load i64, ptr %17, align 8, !tbaa !39
  store i64 %18, ptr %1, align 8, !tbaa !60
  %19 = getelementptr inbounds nuw i8, ptr %13, i64 96
  %20 = load i64, ptr %19, align 8, !tbaa !40
  store i64 %20, ptr %2, align 8, !tbaa !60
  br label %21

21:                                               ; preds = %16, %15, %10, %5
  %.0 = phi i32 [ -1, %5 ], [ -2, %10 ], [ -5, %15 ], [ 0, %16 ]
  ret i32 %.0
}